
main:     file format elf64-x86-64


Disassembly of section .init:

0000000000400780 <_init>:
  400780:	48 83 ec 08          	sub    $0x8,%rsp
  400784:	e8 e3 00 00 00       	callq  40086c <call_gmon_start>
  400789:	e8 72 01 00 00       	callq  400900 <frame_dummy>
  40078e:	e8 0d 04 00 00       	callq  400ba0 <__do_global_ctors_aux>
  400793:	48 83 c4 08          	add    $0x8,%rsp
  400797:	c3                   	retq   

Disassembly of section .plt:

0000000000400798 <std::ios_base::Init::Init()@plt-0x10>:
  400798:	ff 35 6a 0a 20 00    	pushq  0x200a6a(%rip)        # 601208 <_GLOBAL_OFFSET_TABLE_+0x8>
  40079e:	ff 25 6c 0a 20 00    	jmpq   *0x200a6c(%rip)        # 601210 <_GLOBAL_OFFSET_TABLE_+0x10>
  4007a4:	0f 1f 40 00          	nopl   0x0(%rax)

00000000004007a8 <std::ios_base::Init::Init()@plt>:
  4007a8:	ff 25 6a 0a 20 00    	jmpq   *0x200a6a(%rip)        # 601218 <_GLOBAL_OFFSET_TABLE_+0x18>
  4007ae:	68 00 00 00 00       	pushq  $0x0
  4007b3:	e9 e0 ff ff ff       	jmpq   400798 <_init+0x18>

00000000004007b8 <__libc_start_main@plt>:
  4007b8:	ff 25 62 0a 20 00    	jmpq   *0x200a62(%rip)        # 601220 <_GLOBAL_OFFSET_TABLE_+0x20>
  4007be:	68 01 00 00 00       	pushq  $0x1
  4007c3:	e9 d0 ff ff ff       	jmpq   400798 <_init+0x18>

00000000004007c8 <__cxa_atexit@plt>:
  4007c8:	ff 25 5a 0a 20 00    	jmpq   *0x200a5a(%rip)        # 601228 <_GLOBAL_OFFSET_TABLE_+0x28>
  4007ce:	68 02 00 00 00       	pushq  $0x2
  4007d3:	e9 c0 ff ff ff       	jmpq   400798 <_init+0x18>

00000000004007d8 <std::ios_base::Init::~Init()@plt>:
  4007d8:	ff 25 52 0a 20 00    	jmpq   *0x200a52(%rip)        # 601230 <_GLOBAL_OFFSET_TABLE_+0x30>
  4007de:	68 03 00 00 00       	pushq  $0x3
  4007e3:	e9 b0 ff ff ff       	jmpq   400798 <_init+0x18>

00000000004007e8 <std::basic_ostream<char, std::char_traits<char> >& std::operator<< <std::char_traits<char> >(std::basic_ostream<char, std::char_traits<char> >&, char const*)@plt>:
  4007e8:	ff 25 4a 0a 20 00    	jmpq   *0x200a4a(%rip)        # 601238 <_GLOBAL_OFFSET_TABLE_+0x38>
  4007ee:	68 04 00 00 00       	pushq  $0x4
  4007f3:	e9 a0 ff ff ff       	jmpq   400798 <_init+0x18>

00000000004007f8 <__cxa_pure_virtual@plt>:
  4007f8:	ff 25 42 0a 20 00    	jmpq   *0x200a42(%rip)        # 601240 <_GLOBAL_OFFSET_TABLE_+0x40>
  4007fe:	68 05 00 00 00       	pushq  $0x5
  400803:	e9 90 ff ff ff       	jmpq   400798 <_init+0x18>

0000000000400808 <std::ostream::operator<<(std::ostream& (*)(std::ostream&))@plt>:
  400808:	ff 25 3a 0a 20 00    	jmpq   *0x200a3a(%rip)        # 601248 <_GLOBAL_OFFSET_TABLE_+0x48>
  40080e:	68 06 00 00 00       	pushq  $0x6
  400813:	e9 80 ff ff ff       	jmpq   400798 <_init+0x18>

0000000000400818 <std::basic_ostream<char, std::char_traits<char> >& std::endl<char, std::char_traits<char> >(std::basic_ostream<char, std::char_traits<char> >&)@plt>:
  400818:	ff 25 32 0a 20 00    	jmpq   *0x200a32(%rip)        # 601250 <_GLOBAL_OFFSET_TABLE_+0x50>
  40081e:	68 07 00 00 00       	pushq  $0x7
  400823:	e9 70 ff ff ff       	jmpq   400798 <_init+0x18>

0000000000400828 <__gxx_personality_v0@plt>:
  400828:	ff 25 2a 0a 20 00    	jmpq   *0x200a2a(%rip)        # 601258 <_GLOBAL_OFFSET_TABLE_+0x58>
  40082e:	68 08 00 00 00       	pushq  $0x8
  400833:	e9 60 ff ff ff       	jmpq   400798 <_init+0x18>

Disassembly of section .text:

0000000000400840 <_start>:
  400840:	31 ed                	xor    %ebp,%ebp
  400842:	49 89 d1             	mov    %rdx,%r9
  400845:	5e                   	pop    %rsi
  400846:	48 89 e2             	mov    %rsp,%rdx
  400849:	48 83 e4 f0          	and    $0xfffffffffffffff0,%rsp
  40084d:	50                   	push   %rax
  40084e:	54                   	push   %rsp
  40084f:	49 c7 c0 00 0b 40 00 	mov    $0x400b00,%r8
  400856:	48 c7 c1 10 0b 40 00 	mov    $0x400b10,%rcx
  40085d:	48 c7 c7 24 09 40 00 	mov    $0x400924,%rdi
  400864:	e8 4f ff ff ff       	callq  4007b8 <__libc_start_main@plt>
  400869:	f4                   	hlt    
  40086a:	90                   	nop
  40086b:	90                   	nop

000000000040086c <call_gmon_start>:
  40086c:	48 83 ec 08          	sub    $0x8,%rsp
  400870:	48 8b 05 81 09 20 00 	mov    0x200981(%rip),%rax        # 6011f8 <_DYNAMIC+0x1c0>
  400877:	48 85 c0             	test   %rax,%rax
  40087a:	74 02                	je     40087e <call_gmon_start+0x12>
  40087c:	ff d0                	callq  *%rax
  40087e:	48 83 c4 08          	add    $0x8,%rsp
  400882:	c3                   	retq   
  400883:	90                   	nop
  400884:	90                   	nop
  400885:	90                   	nop
  400886:	90                   	nop
  400887:	90                   	nop
  400888:	90                   	nop
  400889:	90                   	nop
  40088a:	90                   	nop
  40088b:	90                   	nop
  40088c:	90                   	nop
  40088d:	90                   	nop
  40088e:	90                   	nop
  40088f:	90                   	nop

0000000000400890 <__do_global_dtors_aux>:
  400890:	55                   	push   %rbp
  400891:	48 89 e5             	mov    %rsp,%rbp
  400894:	53                   	push   %rbx
  400895:	48 83 ec 08          	sub    $0x8,%rsp
  400899:	80 3d b8 0b 20 00 00 	cmpb   $0x0,0x200bb8(%rip)        # 601458 <completed.6349>
  4008a0:	75 4b                	jne    4008ed <__do_global_dtors_aux+0x5d>
  4008a2:	bb 28 10 60 00       	mov    $0x601028,%ebx
  4008a7:	48 8b 05 b2 0b 20 00 	mov    0x200bb2(%rip),%rax        # 601460 <dtor_idx.6351>
  4008ae:	48 81 eb 20 10 60 00 	sub    $0x601020,%rbx
  4008b5:	48 c1 fb 03          	sar    $0x3,%rbx
  4008b9:	48 83 eb 01          	sub    $0x1,%rbx
  4008bd:	48 39 d8             	cmp    %rbx,%rax
  4008c0:	73 24                	jae    4008e6 <__do_global_dtors_aux+0x56>
  4008c2:	66 0f 1f 44 00 00    	nopw   0x0(%rax,%rax,1)
  4008c8:	48 83 c0 01          	add    $0x1,%rax
  4008cc:	48 89 05 8d 0b 20 00 	mov    %rax,0x200b8d(%rip)        # 601460 <dtor_idx.6351>
  4008d3:	ff 14 c5 20 10 60 00 	callq  *0x601020(,%rax,8)
  4008da:	48 8b 05 7f 0b 20 00 	mov    0x200b7f(%rip),%rax        # 601460 <dtor_idx.6351>
  4008e1:	48 39 d8             	cmp    %rbx,%rax
  4008e4:	72 e2                	jb     4008c8 <__do_global_dtors_aux+0x38>
  4008e6:	c6 05 6b 0b 20 00 01 	movb   $0x1,0x200b6b(%rip)        # 601458 <completed.6349>
  4008ed:	48 83 c4 08          	add    $0x8,%rsp
  4008f1:	5b                   	pop    %rbx
  4008f2:	c9                   	leaveq 
  4008f3:	c3                   	retq   
  4008f4:	66 66 66 2e 0f 1f 84 	data32 data32 nopw %cs:0x0(%rax,%rax,1)
  4008fb:	00 00 00 00 00 

0000000000400900 <frame_dummy>:
  400900:	48 83 3d 28 07 20 00 	cmpq   $0x0,0x200728(%rip)        # 601030 <__JCR_END__>
  400907:	00 
  400908:	55                   	push   %rbp
  400909:	48 89 e5             	mov    %rsp,%rbp
  40090c:	74 12                	je     400920 <frame_dummy+0x20>
  40090e:	b8 00 00 00 00       	mov    $0x0,%eax
  400913:	48 85 c0             	test   %rax,%rax
  400916:	74 08                	je     400920 <frame_dummy+0x20>
  400918:	bf 30 10 60 00       	mov    $0x601030,%edi
  40091d:	c9                   	leaveq 
  40091e:	ff e0                	jmpq   *%rax
  400920:	c9                   	leaveq 
  400921:	c3                   	retq   
  400922:	90                   	nop
  400923:	90                   	nop

0000000000400924 <main>:
  400924:	55                   	push   %rbp
  400925:	48 89 e5             	mov    %rsp,%rbp
  400928:	48 83 ec 10          	sub    $0x10,%rsp
  40092c:	48 8d 45 f0          	lea    -0x10(%rbp),%rax
  400930:	48 89 c7             	mov    %rax,%rdi
  400933:	e8 ea 00 00 00       	callq  400a22 <MainTest::MainTest()>
  400938:	48 8d 45 f0          	lea    -0x10(%rbp),%rax
  40093c:	48 89 c7             	mov    %rax,%rdi
  40093f:	e8 04 01 00 00       	callq  400a48 <aTest::func1()>
  400944:	48 8d 45 f0          	lea    -0x10(%rbp),%rax
  400948:	48 89 c7             	mov    %rax,%rdi
  40094b:	e8 68 00 00 00       	callq  4009b8 <MainTest::func2()>
  400950:	48 8d 45 f0          	lea    -0x10(%rbp),%rax
  400954:	48 89 c7             	mov    %rax,%rdi
  400957:	e8 86 00 00 00       	callq  4009e2 <MainTest::func3()>
  40095c:	b8 00 00 00 00       	mov    $0x0,%eax
  400961:	c9                   	leaveq 
  400962:	c3                   	retq   

0000000000400963 <__static_initialization_and_destruction_0(int, int)>:
  400963:	55                   	push   %rbp
  400964:	48 89 e5             	mov    %rsp,%rbp
  400967:	48 83 ec 10          	sub    $0x10,%rsp
  40096b:	89 7d fc             	mov    %edi,-0x4(%rbp)
  40096e:	89 75 f8             	mov    %esi,-0x8(%rbp)
  400971:	83 7d fc 01          	cmpl   $0x1,-0x4(%rbp)
  400975:	75 2a                	jne    4009a1 <__static_initialization_and_destruction_0(int, int)+0x3e>
  400977:	81 7d f8 ff ff 00 00 	cmpl   $0xffff,-0x8(%rbp)
  40097e:	75 21                	jne    4009a1 <__static_initialization_and_destruction_0(int, int)+0x3e>
  400980:	bf 68 14 60 00       	mov    $0x601468,%edi
  400985:	e8 1e fe ff ff       	callq  4007a8 <std::ios_base::Init::Init()@plt>
  40098a:	b8 d8 07 40 00       	mov    $0x4007d8,%eax
  40098f:	ba 08 0c 40 00       	mov    $0x400c08,%edx
  400994:	be 68 14 60 00       	mov    $0x601468,%esi
  400999:	48 89 c7             	mov    %rax,%rdi
  40099c:	e8 27 fe ff ff       	callq  4007c8 <__cxa_atexit@plt>
  4009a1:	c9                   	leaveq 
  4009a2:	c3                   	retq   

00000000004009a3 <global constructors keyed to main>:
  4009a3:	55                   	push   %rbp
  4009a4:	48 89 e5             	mov    %rsp,%rbp
  4009a7:	be ff ff 00 00       	mov    $0xffff,%esi
  4009ac:	bf 01 00 00 00       	mov    $0x1,%edi
  4009b1:	e8 ad ff ff ff       	callq  400963 <__static_initialization_and_destruction_0(int, int)>
  4009b6:	c9                   	leaveq 
  4009b7:	c3                   	retq   

00000000004009b8 <MainTest::func2()>:
  4009b8:	55                   	push   %rbp
  4009b9:	48 89 e5             	mov    %rsp,%rbp
  4009bc:	48 83 ec 10          	sub    $0x10,%rsp
  4009c0:	48 89 7d f8          	mov    %rdi,-0x8(%rbp)
  4009c4:	be 10 0c 40 00       	mov    $0x400c10,%esi
  4009c9:	bf e0 12 60 00       	mov    $0x6012e0,%edi
  4009ce:	e8 15 fe ff ff       	callq  4007e8 <std::basic_ostream<char, std::char_traits<char> >& std::operator<< <std::char_traits<char> >(std::basic_ostream<char, std::char_traits<char> >&, char const*)@plt>
  4009d3:	be 18 08 40 00       	mov    $0x400818,%esi
  4009d8:	48 89 c7             	mov    %rax,%rdi
  4009db:	e8 28 fe ff ff       	callq  400808 <std::ostream::operator<<(std::ostream& (*)(std::ostream&))@plt>
  4009e0:	c9                   	leaveq 
  4009e1:	c3                   	retq   

00000000004009e2 <MainTest::func3()>:
  4009e2:	55                   	push   %rbp
  4009e3:	48 89 e5             	mov    %rsp,%rbp
  4009e6:	48 83 ec 10          	sub    $0x10,%rsp
  4009ea:	48 89 7d f8          	mov    %rdi,-0x8(%rbp)
  4009ee:	be 29 0c 40 00       	mov    $0x400c29,%esi
  4009f3:	bf e0 12 60 00       	mov    $0x6012e0,%edi
  4009f8:	e8 eb fd ff ff       	callq  4007e8 <std::basic_ostream<char, std::char_traits<char> >& std::operator<< <std::char_traits<char> >(std::basic_ostream<char, std::char_traits<char> >&, char const*)@plt>
  4009fd:	be 18 08 40 00       	mov    $0x400818,%esi
  400a02:	48 89 c7             	mov    %rax,%rdi
  400a05:	e8 fe fd ff ff       	callq  400808 <std::ostream::operator<<(std::ostream& (*)(std::ostream&))@plt>
  400a0a:	c9                   	leaveq 
  400a0b:	c3                   	retq   

0000000000400a0c <aTest::aTest()>:
  400a0c:	55                   	push   %rbp
  400a0d:	48 89 e5             	mov    %rsp,%rbp
  400a10:	48 89 7d f8          	mov    %rdi,-0x8(%rbp)
  400a14:	48 8b 45 f8          	mov    -0x8(%rbp),%rax
  400a18:	48 c7 00 f0 0c 40 00 	movq   $0x400cf0,(%rax)
  400a1f:	c9                   	leaveq 
  400a20:	c3                   	retq   
  400a21:	90                   	nop

0000000000400a22 <MainTest::MainTest()>:
  400a22:	55                   	push   %rbp
  400a23:	48 89 e5             	mov    %rsp,%rbp
  400a26:	48 83 ec 10          	sub    $0x10,%rsp
  400a2a:	48 89 7d f8          	mov    %rdi,-0x8(%rbp)
  400a2e:	48 8b 45 f8          	mov    -0x8(%rbp),%rax
  400a32:	48 89 c7             	mov    %rax,%rdi
  400a35:	e8 d2 ff ff ff       	callq  400a0c <aTest::aTest()>
  400a3a:	48 8b 45 f8          	mov    -0x8(%rbp),%rax
  400a3e:	48 c7 00 70 0c 40 00 	movq   $0x400c70,(%rax)
  400a45:	c9                   	leaveq 
  400a46:	c3                   	retq   
  400a47:	90                   	nop

0000000000400a48 <aTest::func1()>:
  400a48:	55                   	push   %rbp
  400a49:	48 89 e5             	mov    %rsp,%rbp
  400a4c:	48 83 ec 10          	sub    $0x10,%rsp
  400a50:	48 89 7d f8          	mov    %rdi,-0x8(%rbp)
  400a54:	be a8 0c 40 00       	mov    $0x400ca8,%esi
  400a59:	bf e0 12 60 00       	mov    $0x6012e0,%edi
  400a5e:	e8 85 fd ff ff       	callq  4007e8 <std::basic_ostream<char, std::char_traits<char> >& std::operator<< <std::char_traits<char> >(std::basic_ostream<char, std::char_traits<char> >&, char const*)@plt>
  400a63:	be 18 08 40 00       	mov    $0x400818,%esi
  400a68:	48 89 c7             	mov    %rax,%rdi
  400a6b:	e8 98 fd ff ff       	callq  400808 <std::ostream::operator<<(std::ostream& (*)(std::ostream&))@plt>
  400a70:	c9                   	leaveq 
  400a71:	c3                   	retq   

0000000000400a72 <aTest::func2()>:
  400a72:	55                   	push   %rbp
  400a73:	48 89 e5             	mov    %rsp,%rbp
  400a76:	48 83 ec 10          	sub    $0x10,%rsp
  400a7a:	48 89 7d f8          	mov    %rdi,-0x8(%rbp)
  400a7e:	be be 0c 40 00       	mov    $0x400cbe,%esi
  400a83:	bf e0 12 60 00       	mov    $0x6012e0,%edi
  400a88:	e8 5b fd ff ff       	callq  4007e8 <std::basic_ostream<char, std::char_traits<char> >& std::operator<< <std::char_traits<char> >(std::basic_ostream<char, std::char_traits<char> >&, char const*)@plt>
  400a8d:	be 18 08 40 00       	mov    $0x400818,%esi
  400a92:	48 89 c7             	mov    %rax,%rdi
  400a95:	e8 6e fd ff ff       	callq  400808 <std::ostream::operator<<(std::ostream& (*)(std::ostream&))@plt>
  400a9a:	c9                   	leaveq 
  400a9b:	c3                   	retq   

0000000000400a9c <__static_initialization_and_destruction_0(int, int)>:
  400a9c:	55                   	push   %rbp
  400a9d:	48 89 e5             	mov    %rsp,%rbp
  400aa0:	48 83 ec 10          	sub    $0x10,%rsp
  400aa4:	89 7d fc             	mov    %edi,-0x4(%rbp)
  400aa7:	89 75 f8             	mov    %esi,-0x8(%rbp)
  400aaa:	83 7d fc 01          	cmpl   $0x1,-0x4(%rbp)
  400aae:	75 2a                	jne    400ada <__static_initialization_and_destruction_0(int, int)+0x3e>
  400ab0:	81 7d f8 ff ff 00 00 	cmpl   $0xffff,-0x8(%rbp)
  400ab7:	75 21                	jne    400ada <__static_initialization_and_destruction_0(int, int)+0x3e>
  400ab9:	bf 6c 14 60 00       	mov    $0x60146c,%edi
  400abe:	e8 e5 fc ff ff       	callq  4007a8 <std::ios_base::Init::Init()@plt>
  400ac3:	b8 d8 07 40 00       	mov    $0x4007d8,%eax
  400ac8:	ba 08 0c 40 00       	mov    $0x400c08,%edx
  400acd:	be 6c 14 60 00       	mov    $0x60146c,%esi
  400ad2:	48 89 c7             	mov    %rax,%rdi
  400ad5:	e8 ee fc ff ff       	callq  4007c8 <__cxa_atexit@plt>
  400ada:	c9                   	leaveq 
  400adb:	c3                   	retq   

0000000000400adc <global constructors keyed to _ZN5aTest5func1Ev>:
  400adc:	55                   	push   %rbp
  400add:	48 89 e5             	mov    %rsp,%rbp
  400ae0:	be ff ff 00 00       	mov    $0xffff,%esi
  400ae5:	bf 01 00 00 00       	mov    $0x1,%edi
  400aea:	e8 ad ff ff ff       	callq  400a9c <__static_initialization_and_destruction_0(int, int)>
  400aef:	c9                   	leaveq 
  400af0:	c3                   	retq   
  400af1:	90                   	nop
  400af2:	90                   	nop
  400af3:	90                   	nop
  400af4:	90                   	nop
  400af5:	90                   	nop
  400af6:	90                   	nop
  400af7:	90                   	nop
  400af8:	90                   	nop
  400af9:	90                   	nop
  400afa:	90                   	nop
  400afb:	90                   	nop
  400afc:	90                   	nop
  400afd:	90                   	nop
  400afe:	90                   	nop
  400aff:	90                   	nop

0000000000400b00 <__libc_csu_fini>:
  400b00:	f3 c3                	repz retq 
  400b02:	66 66 66 66 66 2e 0f 	data32 data32 data32 data32 nopw %cs:0x0(%rax,%rax,1)
  400b09:	1f 84 00 00 00 00 00 

0000000000400b10 <__libc_csu_init>:
  400b10:	48 89 6c 24 d8       	mov    %rbp,-0x28(%rsp)
  400b15:	4c 89 64 24 e0       	mov    %r12,-0x20(%rsp)
  400b1a:	48 8d 2d df 04 20 00 	lea    0x2004df(%rip),%rbp        # 601000 <__CTOR_LIST__>
  400b21:	4c 8d 25 d8 04 20 00 	lea    0x2004d8(%rip),%r12        # 601000 <__CTOR_LIST__>
  400b28:	4c 89 6c 24 e8       	mov    %r13,-0x18(%rsp)
  400b2d:	4c 89 74 24 f0       	mov    %r14,-0x10(%rsp)
  400b32:	4c 89 7c 24 f8       	mov    %r15,-0x8(%rsp)
  400b37:	48 89 5c 24 d0       	mov    %rbx,-0x30(%rsp)
  400b3c:	48 83 ec 38          	sub    $0x38,%rsp
  400b40:	4c 29 e5             	sub    %r12,%rbp
  400b43:	41 89 fd             	mov    %edi,%r13d
  400b46:	49 89 f6             	mov    %rsi,%r14
  400b49:	48 c1 fd 03          	sar    $0x3,%rbp
  400b4d:	49 89 d7             	mov    %rdx,%r15
  400b50:	e8 2b fc ff ff       	callq  400780 <_init>
  400b55:	48 85 ed             	test   %rbp,%rbp
  400b58:	74 1c                	je     400b76 <__libc_csu_init+0x66>
  400b5a:	31 db                	xor    %ebx,%ebx
  400b5c:	0f 1f 40 00          	nopl   0x0(%rax)
  400b60:	4c 89 fa             	mov    %r15,%rdx
  400b63:	4c 89 f6             	mov    %r14,%rsi
  400b66:	44 89 ef             	mov    %r13d,%edi
  400b69:	41 ff 14 dc          	callq  *(%r12,%rbx,8)
  400b6d:	48 83 c3 01          	add    $0x1,%rbx
  400b71:	48 39 eb             	cmp    %rbp,%rbx
  400b74:	72 ea                	jb     400b60 <__libc_csu_init+0x50>
  400b76:	48 8b 5c 24 08       	mov    0x8(%rsp),%rbx
  400b7b:	48 8b 6c 24 10       	mov    0x10(%rsp),%rbp
  400b80:	4c 8b 64 24 18       	mov    0x18(%rsp),%r12
  400b85:	4c 8b 6c 24 20       	mov    0x20(%rsp),%r13
  400b8a:	4c 8b 74 24 28       	mov    0x28(%rsp),%r14
  400b8f:	4c 8b 7c 24 30       	mov    0x30(%rsp),%r15
  400b94:	48 83 c4 38          	add    $0x38,%rsp
  400b98:	c3                   	retq   
  400b99:	90                   	nop
  400b9a:	90                   	nop
  400b9b:	90                   	nop
  400b9c:	90                   	nop
  400b9d:	90                   	nop
  400b9e:	90                   	nop
  400b9f:	90                   	nop

0000000000400ba0 <__do_global_ctors_aux>:
  400ba0:	55                   	push   %rbp
  400ba1:	48 89 e5             	mov    %rsp,%rbp
  400ba4:	53                   	push   %rbx
  400ba5:	48 83 ec 08          	sub    $0x8,%rsp
  400ba9:	48 8b 05 60 04 20 00 	mov    0x200460(%rip),%rax        # 601010 <__CTOR_LIST__+0x10>
  400bb0:	48 83 f8 ff          	cmp    $0xffffffffffffffff,%rax
  400bb4:	74 19                	je     400bcf <__do_global_ctors_aux+0x2f>
  400bb6:	bb 10 10 60 00       	mov    $0x601010,%ebx
  400bbb:	0f 1f 44 00 00       	nopl   0x0(%rax,%rax,1)
  400bc0:	48 83 eb 08          	sub    $0x8,%rbx
  400bc4:	ff d0                	callq  *%rax
  400bc6:	48 8b 03             	mov    (%rbx),%rax
  400bc9:	48 83 f8 ff          	cmp    $0xffffffffffffffff,%rax
  400bcd:	75 f1                	jne    400bc0 <__do_global_ctors_aux+0x20>
  400bcf:	48 83 c4 08          	add    $0x8,%rsp
  400bd3:	5b                   	pop    %rbx
  400bd4:	c9                   	leaveq 
  400bd5:	c3                   	retq   
  400bd6:	90                   	nop
  400bd7:	90                   	nop

Disassembly of section .fini:

0000000000400bd8 <_fini>:
  400bd8:	48 83 ec 08          	sub    $0x8,%rsp
  400bdc:	e8 af fc ff ff       	callq  400890 <__do_global_dtors_aux>
  400be1:	48 83 c4 08          	add    $0x8,%rsp
  400be5:	c3                   	retq   
